; ModuleID = '33/1033.c'
source_filename = "33/1033.c"
target datalayout = "e-m:e-p270:32:32-p271:32:32-p272:64:64-i64:64-f80:128-n8:16:32:64-S128"
target triple = "x86_64-pc-linux-gnu"

@.str = private unnamed_addr constant [3 x i8] c"%d\00", align 1
@.str.1 = private unnamed_addr constant [3 x i8] c"%s\00", align 1
@.str.2 = private unnamed_addr constant [4 x i8] c"%s\0A\00", align 1

; Function Attrs: noinline nounwind uwtable
define dso_local i32 @main() #0 {
  %1 = alloca i32, align 4
  %2 = alloca i32, align 4
  %3 = alloca i32, align 4
  %4 = alloca i32, align 4
  %5 = alloca [101 x i8], align 16
  %6 = alloca i8, align 1
  %7 = alloca i8, align 1
  %8 = alloca i8, align 1
  %9 = alloca i8, align 1
  store i32 0, i32* %1, align 4
  store i8 65, i8* %6, align 1
  store i8 84, i8* %7, align 1
  store i8 67, i8* %8, align 1
  store i8 71, i8* %9, align 1
  %10 = call i32 (i8*, ...) @__isoc99_scanf(i8* getelementptr inbounds ([3 x i8], [3 x i8]* @.str, i64 0, i64 0), i32* %4)
  store i32 0, i32* %2, align 4
  br label %11

11:                                               ; preds = %87, %0
  %12 = load i32, i32* %2, align 4
  %13 = load i32, i32* %4, align 4
  %14 = icmp slt i32 %12, %13
  br i1 %14, label %15, label %90

15:                                               ; preds = %11
  %16 = getelementptr inbounds [101 x i8], [101 x i8]* %5, i64 0, i64 0
  %17 = call i32 (i8*, ...) @__isoc99_scanf(i8* getelementptr inbounds ([3 x i8], [3 x i8]* @.str.1, i64 0, i64 0), i8* %16)
  store i32 0, i32* %3, align 4
  br label %18

18:                                               ; preds = %81, %15
  %19 = load i32, i32* %3, align 4
  %20 = sext i32 %19 to i64
  %21 = getelementptr inbounds [101 x i8], [101 x i8]* %5, i64 0, i64 %20
  %22 = load i8, i8* %21, align 1
  %23 = icmp ne i8 %22, 0
  br i1 %23, label %24, label %84

24:                                               ; preds = %18
  %25 = load i32, i32* %3, align 4
  %26 = sext i32 %25 to i64
  %27 = getelementptr inbounds [101 x i8], [101 x i8]* %5, i64 0, i64 %26
  %28 = load i8, i8* %27, align 1
  %29 = sext i8 %28 to i32
  %30 = load i8, i8* %6, align 1
  %31 = sext i8 %30 to i32
  %32 = icmp eq i32 %29, %31
  br i1 %32, label %33, label %38

33:                                               ; preds = %24
  %34 = load i8, i8* %7, align 1
  %35 = load i32, i32* %3, align 4
  %36 = sext i32 %35 to i64
  %37 = getelementptr inbounds [101 x i8], [101 x i8]* %5, i64 0, i64 %36
  store i8 %34, i8* %37, align 1
  br label %81

38:                                               ; preds = %24
  %39 = load i32, i32* %3, align 4
  %40 = sext i32 %39 to i64
  %41 = getelementptr inbounds [101 x i8], [101 x i8]* %5, i64 0, i64 %40
  %42 = load i8, i8* %41, align 1
  %43 = sext i8 %42 to i32
  %44 = load i8, i8* %7, align 1
  %45 = sext i8 %44 to i32
  %46 = icmp eq i32 %43, %45
  br i1 %46, label %47, label %52

47:                                               ; preds = %38
  %48 = load i8, i8* %6, align 1
  %49 = load i32, i32* %3, align 4
  %50 = sext i32 %49 to i64
  %51 = getelementptr inbounds [101 x i8], [101 x i8]* %5, i64 0, i64 %50
  store i8 %48, i8* %51, align 1
  br label %81

52:                                               ; preds = %38
  %53 = load i32, i32* %3, align 4
  %54 = sext i32 %53 to i64
  %55 = getelementptr inbounds [101 x i8], [101 x i8]* %5, i64 0, i64 %54
  %56 = load i8, i8* %55, align 1
  %57 = sext i8 %56 to i32
  %58 = load i8, i8* %8, align 1
  %59 = sext i8 %58 to i32
  %60 = icmp eq i32 %57, %59
  br i1 %60, label %61, label %66

61:                                               ; preds = %52
  %62 = load i8, i8* %9, align 1
  %63 = load i32, i32* %3, align 4
  %64 = sext i32 %63 to i64
  %65 = getelementptr inbounds [101 x i8], [101 x i8]* %5, i64 0, i64 %64
  store i8 %62, i8* %65, align 1
  br label %81

66:                                               ; preds = %52
  %67 = load i32, i32* %3, align 4
  %68 = sext i32 %67 to i64
  %69 = getelementptr inbounds [101 x i8], [101 x i8]* %5, i64 0, i64 %68
  %70 = load i8, i8* %69, align 1
  %71 = sext i8 %70 to i32
  %72 = load i8, i8* %9, align 1
  %73 = sext i8 %72 to i32
  %74 = icmp eq i32 %71, %73
  br i1 %74, label %75, label %80

75:                                               ; preds = %66
  %76 = load i8, i8* %8, align 1
  %77 = load i32, i32* %3, align 4
  %78 = sext i32 %77 to i64
  %79 = getelementptr inbounds [101 x i8], [101 x i8]* %5, i64 0, i64 %78
  store i8 %76, i8* %79, align 1
  br label %81

80:                                               ; preds = %66
  br label %81

81:                                               ; preds = %80, %75, %61, %47, %33
  %82 = load i32, i32* %3, align 4
  %83 = add nsw i32 %82, 1
  store i32 %83, i32* %3, align 4
  br label %18

84:                                               ; preds = %18
  %85 = getelementptr inbounds [101 x i8], [101 x i8]* %5, i64 0, i64 0
  %86 = call i32 (i8*, ...) @printf(i8* getelementptr inbounds ([4 x i8], [4 x i8]* @.str.2, i64 0, i64 0), i8* %85)
  br label %87

87:                                               ; preds = %84
  %88 = load i32, i32* %2, align 4
  %89 = add nsw i32 %88, 1
  store i32 %89, i32* %2, align 4
  br label %11

90:                                               ; preds = %11
  ret i32 0
}

declare dso_local i32 @__isoc99_scanf(i8*, ...) #1

declare dso_local i32 @printf(i8*, ...) #1


!llvm.module.flags = !{!0}
!llvm.ident = !{!1}

!0 = !{i32 1, !"wchar_size", i32 4}
!1 = !{!"clang version 10.0.0-4ubuntu1 "}
